; Function Attrs: mustprogress uwtable
define hidden void @_ZN6google8protobuf8internal14WireFormatLite13WriteSFixed64EilPNS0_2io17CodedOutputStreamE(i32 noundef %0, i64 noundef %1, ptr noundef %2) local_unnamed_addr #3 align 2 {
  %4 = shl i32 %0, 3
  %5 = getelementptr inbounds nuw i8, ptr %2, i64 64
  %6 = load ptr, ptr %5, align 8, !tbaa !20
  %7 = load ptr, ptr %2, align 8, !tbaa !25
  %.not.i.i.i = icmp ult ptr %6, %7
  br i1 %.not.i.i.i, label %_ZN6google8protobuf2io19EpsCopyOutputStream11EnsureSpaceEPh.exit.i.i, label %8, !prof !15

8:                                                ; preds = %3
  %9 = tail call noundef ptr @_ZN6google8protobuf2io19EpsCopyOutputStream19EnsureSpaceFallbackEPh(ptr noundef nonnull align 8 dereferenceable(80) %2, ptr noundef %6)
  br label %_ZN6google8protobuf2io19EpsCopyOutputStream11EnsureSpaceEPh.exit.i.i

_ZN6google8protobuf2io19EpsCopyOutputStream11EnsureSpaceEPh.exit.i.i: ; preds = %8, %3
  %.0.i.i.i = phi ptr [ %9, %8 ], [ %6, %3 ]
  store ptr %.0.i.i.i, ptr %5, align 8, !tbaa !20
  %10 = trunc i32 %4 to i8
  %11 = or disjoint i8 %10, 1
  store i8 %11, ptr %.0.i.i.i, align 1, !tbaa !16
  %12 = icmp ult i32 %4, 128
  br i1 %12, label %13, label %15

13:                                               ; preds = %_ZN6google8protobuf2io19EpsCopyOutputStream11EnsureSpaceEPh.exit.i.i
  %14 = getelementptr inbounds nuw i8, ptr %.0.i.i.i, i64 1
  br label %_ZN6google8protobuf2io17CodedOutputStream8WriteTagEj.exit

15:                                               ; preds = %_ZN6google8protobuf2io19EpsCopyOutputStream11EnsureSpaceEPh.exit.i.i
  %16 = or i8 %10, -127
  store i8 %16, ptr %.0.i.i.i, align 1, !tbaa !16
  %17 = lshr i32 %4, 7
  %18 = trunc i32 %17 to i8
  %19 = getelementptr inbounds nuw i8, ptr %.0.i.i.i, i64 1
  store i8 %18, ptr %19, align 1, !tbaa !16
  %20 = icmp ult i32 %4, 16384
  %21 = getelementptr inbounds nuw i8, ptr %.0.i.i.i, i64 2
  br i1 %20, label %_ZN6google8protobuf2io17CodedOutputStream8WriteTagEj.exit, label %.preheader.i.i.preheader

.preheader.i.i.preheader:                         ; preds = %15
  %scevgep = getelementptr i8, ptr %.0.i.i.i, i64 1
  %load_initial = load i8, ptr %scevgep, align 1
  br label %.preheader.i.i

.preheader.i.i:                                   ; preds = %.preheader.i.i.preheader, %.preheader.i.i
  %store_forwarded = phi i8 [ %load_initial, %.preheader.i.i.preheader ], [ %25, %.preheader.i.i ]
  %.018.i.i.i.i = phi i32 [ %17, %.preheader.i.i.preheader ], [ %24, %.preheader.i.i ]
  %.0.i.i.i.i = phi ptr [ %21, %.preheader.i.i.preheader ], [ %26, %.preheader.i.i ]
  %22 = getelementptr inbounds i8, ptr %.0.i.i.i.i, i64 -1
  %23 = or i8 %store_forwarded, -128
  store i8 %23, ptr %22, align 1, !tbaa !16
  %24 = lshr i32 %.018.i.i.i.i, 7
  %25 = trunc i32 %24 to i8
  store i8 %25, ptr %.0.i.i.i.i, align 1, !tbaa !16
  %26 = getelementptr inbounds nuw i8, ptr %.0.i.i.i.i, i64 1
  %27 = icmp samesign ugt i32 %.018.i.i.i.i, 16383
  br i1 %27, label %.preheader.i.i, label %_ZN6google8protobuf2io17CodedOutputStream8WriteTagEj.exit, !llvm.loop !26

_ZN6google8protobuf2io17CodedOutputStream8WriteTagEj.exit: ; preds = %.preheader.i.i, %13, %15
  %.019.i.i.i.i = phi ptr [ %14, %13 ], [ %21, %15 ], [ %26, %.preheader.i.i ]
  store ptr %.019.i.i.i.i, ptr %5, align 8, !tbaa !20
  %28 = load ptr, ptr %2, align 8, !tbaa !25
  %.not.i.i = icmp ult ptr %.019.i.i.i.i, %28
  br i1 %.not.i.i, label %_ZN6google8protobuf2io17CodedOutputStream19WriteLittleEndian64Em.exit, label %29, !prof !15

29:                                               ; preds = %_ZN6google8protobuf2io17CodedOutputStream8WriteTagEj.exit
  %30 = tail call noundef ptr @_ZN6google8protobuf2io19EpsCopyOutputStream19EnsureSpaceFallbackEPh(ptr noundef nonnull align 8 dereferenceable(80) %2, ptr noundef nonnull %.019.i.i.i.i)
  br label %_ZN6google8protobuf2io17CodedOutputStream19WriteLittleEndian64Em.exit

_ZN6google8protobuf2io17CodedOutputStream19WriteLittleEndian64Em.exit: ; preds = %_ZN6google8protobuf2io17CodedOutputStream8WriteTagEj.exit, %29
  %.0.i.i = phi ptr [ %30, %29 ], [ %.019.i.i.i.i, %_ZN6google8protobuf2io17CodedOutputStream8WriteTagEj.exit ]
  store i64 %1, ptr %.0.i.i, align 1
  %31 = getelementptr inbounds nuw i8, ptr %.0.i.i, i64 8
  store ptr %31, ptr %5, align 8, !tbaa !20
  ret void
}